target datalayout = "e-m:e-p270:32:32-p271:32:32-p272:64:64-i64:64-i128:128-f80:128-n8:16:32:64-S128"
target triple = "x86_64-pc-linux-gnu"

%struct.dictType = type { ptr, ptr, ptr, ptr, ptr, ptr, ptr, ptr, ptr, ptr, ptr, i8, ptr, ptr, ptr }
%struct.dict = type { ptr, [2 x ptr], [2 x i64], i64, i16, [2 x i8], i16, [0 x ptr] }

@dict_can_resize = internal global i32 0, align 4
@dict_force_resize_ratio = internal global i32 4, align 4

; Function Attrs: nounwind uwtable
define internal void @_dictReset(ptr noundef %0, i32 noundef %1) #0 {
  %3 = alloca ptr, align 8
  %4 = alloca i32, align 4
  store ptr %0, ptr %3, align 8, !tbaa !18
  store i32 %1, ptr %4, align 4, !tbaa !29
  %5 = load ptr, ptr %3, align 8, !tbaa !18
  %6 = getelementptr inbounds nuw %struct.dict, ptr %5, i32 0, i32 1
  %7 = load i32, ptr %4, align 4, !tbaa !29
  %8 = sext i32 %7 to i64
  %9 = getelementptr inbounds [2 x ptr], ptr %6, i64 0, i64 %8
  store ptr null, ptr %9, align 8, !tbaa !30
  %10 = load ptr, ptr %3, align 8, !tbaa !18
  %11 = getelementptr inbounds nuw %struct.dict, ptr %10, i32 0, i32 5
  %12 = load i32, ptr %4, align 4, !tbaa !29
  %13 = sext i32 %12 to i64
  %14 = getelementptr inbounds [2 x i8], ptr %11, i64 0, i64 %13
  store i8 -1, ptr %14, align 1, !tbaa !25
  %15 = load ptr, ptr %3, align 8, !tbaa !18
  %16 = getelementptr inbounds nuw %struct.dict, ptr %15, i32 0, i32 2
  %17 = load i32, ptr %4, align 4, !tbaa !29
  %18 = sext i32 %17 to i64
  %19 = getelementptr inbounds [2 x i64], ptr %16, i64 0, i64 %18
  store i64 0, ptr %19, align 8, !tbaa !11
  ret void
}

; Function Attrs: nounwind uwtable
define internal i32 @dictCheckRehashingCompleted(ptr noundef %0) #0 {
  %2 = alloca i32, align 4
  %3 = alloca ptr, align 8
  store ptr %0, ptr %3, align 8, !tbaa !18
  %4 = load ptr, ptr %3, align 8, !tbaa !18
  %5 = getelementptr inbounds nuw %struct.dict, ptr %4, i32 0, i32 2
  %6 = getelementptr inbounds [2 x i64], ptr %5, i64 0, i64 0
  %7 = load i64, ptr %6, align 8, !tbaa !11
  %8 = icmp ne i64 %7, 0
  br i1 %8, label %9, label %10

9:                                                ; preds = %1
  store i32 0, ptr %2, align 4
  br label %53

10:                                               ; preds = %1
  %11 = load ptr, ptr %3, align 8, !tbaa !18
  %12 = getelementptr inbounds nuw %struct.dict, ptr %11, i32 0, i32 0
  %13 = load ptr, ptr %12, align 8, !tbaa !13
  %14 = getelementptr inbounds nuw %struct.dictType, ptr %13, i32 0, i32 8
  %15 = load ptr, ptr %14, align 8, !tbaa !33
  %16 = icmp ne ptr %15, null
  br i1 %16, label %17, label %24

17:                                               ; preds = %10
  %18 = load ptr, ptr %3, align 8, !tbaa !18
  %19 = getelementptr inbounds nuw %struct.dict, ptr %18, i32 0, i32 0
  %20 = load ptr, ptr %19, align 8, !tbaa !13
  %21 = getelementptr inbounds nuw %struct.dictType, ptr %20, i32 0, i32 8
  %22 = load ptr, ptr %21, align 8, !tbaa !33
  %23 = load ptr, ptr %3, align 8, !tbaa !18
  call void %22(ptr noundef %23)
  br label %24

24:                                               ; preds = %17, %10
  %25 = load ptr, ptr %3, align 8, !tbaa !18
  %26 = getelementptr inbounds nuw %struct.dict, ptr %25, i32 0, i32 1
  %27 = getelementptr inbounds [2 x ptr], ptr %26, i64 0, i64 0
  %28 = load ptr, ptr %27, align 8, !tbaa !30
  call void @zfree(ptr noundef %28)
  %29 = load ptr, ptr %3, align 8, !tbaa !18
  %30 = getelementptr inbounds nuw %struct.dict, ptr %29, i32 0, i32 1
  %31 = getelementptr inbounds [2 x ptr], ptr %30, i64 0, i64 1
  %32 = load ptr, ptr %31, align 8, !tbaa !30
  %33 = load ptr, ptr %3, align 8, !tbaa !18
  %34 = getelementptr inbounds nuw %struct.dict, ptr %33, i32 0, i32 1
  %35 = getelementptr inbounds [2 x ptr], ptr %34, i64 0, i64 0
  store ptr %32, ptr %35, align 8, !tbaa !30
  %36 = load ptr, ptr %3, align 8, !tbaa !18
  %37 = getelementptr inbounds nuw %struct.dict, ptr %36, i32 0, i32 2
  %38 = getelementptr inbounds [2 x i64], ptr %37, i64 0, i64 1
  %39 = load i64, ptr %38, align 8, !tbaa !11
  %40 = load ptr, ptr %3, align 8, !tbaa !18
  %41 = getelementptr inbounds nuw %struct.dict, ptr %40, i32 0, i32 2
  %42 = getelementptr inbounds [2 x i64], ptr %41, i64 0, i64 0
  store i64 %39, ptr %42, align 8, !tbaa !11
  %43 = load ptr, ptr %3, align 8, !tbaa !18
  %44 = getelementptr inbounds nuw %struct.dict, ptr %43, i32 0, i32 5
  %45 = getelementptr inbounds [2 x i8], ptr %44, i64 0, i64 1
  %46 = load i8, ptr %45, align 1, !tbaa !25
  %47 = load ptr, ptr %3, align 8, !tbaa !18
  %48 = getelementptr inbounds nuw %struct.dict, ptr %47, i32 0, i32 5
  %49 = getelementptr inbounds [2 x i8], ptr %48, i64 0, i64 0
  store i8 %46, ptr %49, align 2, !tbaa !25
  %50 = load ptr, ptr %3, align 8, !tbaa !18
  call void @_dictReset(ptr noundef %50, i32 noundef 1)
  %51 = load ptr, ptr %3, align 8, !tbaa !18
  %52 = getelementptr inbounds nuw %struct.dict, ptr %51, i32 0, i32 3
  store i64 -1, ptr %52, align 8, !tbaa !11
  store i32 1, ptr %2, align 4
  br label %53

53:                                               ; preds = %24, %9
  %54 = load i32, ptr %2, align 4
  ret i32 %54
}

; Function Attrs: nounwind uwtable
define dso_local i32 @_dictBucketRehash(ptr noundef %0, i64 noundef %1) #0 {
  %3 = alloca i32, align 4
  %4 = alloca ptr, align 8
  %5 = alloca i64, align 8
  %6 = alloca i64, align 8
  %7 = alloca i64, align 8
  %8 = alloca i32, align 4
  store ptr %0, ptr %4, align 8, !tbaa !18
  store i64 %1, ptr %5, align 8, !tbaa !11
  %9 = load ptr, ptr %4, align 8, !tbaa !18
  %10 = getelementptr inbounds nuw %struct.dict, ptr %9, i32 0, i32 4
  %11 = load i16, ptr %10, align 8
  %12 = and i16 %11, 32767
  %13 = zext i16 %12 to i32
  %14 = icmp ne i32 %13, 0
  br i1 %14, label %15, label %16

15:                                               ; preds = %2
  store i32 0, ptr %3, align 4
  br label %92

16:                                               ; preds = %2
  call void @llvm.lifetime.start.p0(i64 8, ptr %6) #14
  %17 = load ptr, ptr %4, align 8, !tbaa !18
  %18 = getelementptr inbounds nuw %struct.dict, ptr %17, i32 0, i32 5
  %19 = getelementptr inbounds [2 x i8], ptr %18, i64 0, i64 0
  %20 = load i8, ptr %19, align 2, !tbaa !25
  %21 = sext i8 %20 to i32
  %22 = icmp eq i32 %21, -1
  br i1 %22, label %23, label %24

23:                                               ; preds = %16
  br label %32

24:                                               ; preds = %16
  %25 = load ptr, ptr %4, align 8, !tbaa !18
  %26 = getelementptr inbounds nuw %struct.dict, ptr %25, i32 0, i32 5
  %27 = getelementptr inbounds [2 x i8], ptr %26, i64 0, i64 0
  %28 = load i8, ptr %27, align 2, !tbaa !25
  %29 = sext i8 %28 to i32
  %30 = zext i32 %29 to i64
  %31 = shl i64 1, %30
  br label %32

32:                                               ; preds = %24, %23
  %33 = phi i64 [ 0, %23 ], [ %31, %24 ]
  store i64 %33, ptr %6, align 8, !tbaa !11
  call void @llvm.lifetime.start.p0(i64 8, ptr %7) #14
  %34 = load ptr, ptr %4, align 8, !tbaa !18
  %35 = getelementptr inbounds nuw %struct.dict, ptr %34, i32 0, i32 5
  %36 = getelementptr inbounds [2 x i8], ptr %35, i64 0, i64 1
  %37 = load i8, ptr %36, align 1, !tbaa !25
  %38 = sext i8 %37 to i32
  %39 = icmp eq i32 %38, -1
  br i1 %39, label %40, label %41

40:                                               ; preds = %32
  br label %49

41:                                               ; preds = %32
  %42 = load ptr, ptr %4, align 8, !tbaa !18
  %43 = getelementptr inbounds nuw %struct.dict, ptr %42, i32 0, i32 5
  %44 = getelementptr inbounds [2 x i8], ptr %43, i64 0, i64 1
  %45 = load i8, ptr %44, align 1, !tbaa !25
  %46 = sext i8 %45 to i32
  %47 = zext i32 %46 to i64
  %48 = shl i64 1, %47
  br label %49

49:                                               ; preds = %41, %40
  %50 = phi i64 [ 0, %40 ], [ %48, %41 ]
  store i64 %50, ptr %7, align 8, !tbaa !11
  %51 = load i32, ptr @dict_can_resize, align 4, !tbaa !29
  %52 = icmp eq i32 %51, 2
  br i1 %52, label %58, label %53

53:                                               ; preds = %49
  %54 = load ptr, ptr %4, align 8, !tbaa !18
  %55 = getelementptr inbounds nuw %struct.dict, ptr %54, i32 0, i32 3
  %56 = load i64, ptr %55, align 8, !tbaa !11
  %57 = icmp ne i64 %56, -1
  br i1 %57, label %59, label %58

58:                                               ; preds = %53, %49
  store i32 0, ptr %3, align 4
  store i32 1, ptr %8, align 4
  br label %91

59:                                               ; preds = %53
  %60 = load i32, ptr @dict_can_resize, align 4, !tbaa !29
  %61 = icmp eq i32 %60, 1
  br i1 %61, label %62, label %86

62:                                               ; preds = %59
  %63 = load i64, ptr %7, align 8, !tbaa !11
  %64 = load i64, ptr %6, align 8, !tbaa !11
  %65 = icmp ugt i64 %63, %64
  br i1 %65, label %66, label %73

66:                                               ; preds = %62
  %67 = load i64, ptr %7, align 8, !tbaa !11
  %68 = load i32, ptr @dict_force_resize_ratio, align 4, !tbaa !29
  %69 = zext i32 %68 to i64
  %70 = load i64, ptr %6, align 8, !tbaa !11
  %71 = mul i64 %69, %70
  %72 = icmp ult i64 %67, %71
  br i1 %72, label %85, label %73

73:                                               ; preds = %66, %62
  %74 = load i64, ptr %7, align 8, !tbaa !11
  %75 = load i64, ptr %6, align 8, !tbaa !11
  %76 = icmp ult i64 %74, %75
  br i1 %76, label %77, label %86

77:                                               ; preds = %73
  %78 = load i64, ptr %6, align 8, !tbaa !11
  %79 = load i32, ptr @dict_force_resize_ratio, align 4, !tbaa !29
  %80 = mul i32 8, %79
  %81 = zext i32 %80 to i64
  %82 = load i64, ptr %7, align 8, !tbaa !11
  %83 = mul i64 %81, %82
  %84 = icmp ult i64 %78, %83
  br i1 %84, label %85, label %86

85:                                               ; preds = %77, %66
  store i32 0, ptr %3, align 4
  store i32 1, ptr %8, align 4
  br label %91

86:                                               ; preds = %77, %73, %59
  %87 = load ptr, ptr %4, align 8, !tbaa !18
  %88 = load i64, ptr %5, align 8, !tbaa !11
  call void @rehashEntriesInBucketAtIndex(ptr noundef %87, i64 noundef %88)
  %89 = load ptr, ptr %4, align 8, !tbaa !18
  %90 = call i32 @dictCheckRehashingCompleted(ptr noundef %89)
  store i32 1, ptr %3, align 4
  store i32 1, ptr %8, align 4
  br label %91

91:                                               ; preds = %86, %85, %58
  call void @llvm.lifetime.end.p0(i64 8, ptr %7) #14
  call void @llvm.lifetime.end.p0(i64 8, ptr %6) #14
  br label %92

92:                                               ; preds = %91, %15
  %93 = load i32, ptr %3, align 4
  ret i32 %93
}