; Function Attrs: nounwind uwtable
define dso_local range(i32 0, 2) i32 @_dictBucketRehash(ptr noundef %0, i64 noundef %1) local_unnamed_addr #3 {
  %3 = getelementptr inbounds nuw i8, ptr %0, i64 48
  %4 = load i16, ptr %3, align 8
  %5 = and i16 %4, 32767
  %.not = icmp eq i16 %5, 0
  br i1 %.not, label %6, label %dictCheckRehashingCompleted.exit

6:                                                ; preds = %2
  %7 = getelementptr inbounds nuw i8, ptr %0, i64 50
  %8 = load i8, ptr %7, align 2, !tbaa !13
  %9 = icmp eq i8 %8, -1
  %10 = sext i8 %8 to i64
  %11 = and i64 %10, 4294967295
  %12 = shl nuw i64 1, %11
  %13 = select i1 %9, i64 0, i64 %12
  %14 = getelementptr inbounds nuw i8, ptr %0, i64 51
  %15 = load i8, ptr %14, align 1, !tbaa !13
  %16 = icmp eq i8 %15, -1
  %17 = sext i8 %15 to i64
  %18 = and i64 %17, 4294967295
  %19 = shl nuw i64 1, %18
  %20 = select i1 %16, i64 0, i64 %19
  %21 = load i32, ptr @dict_can_resize, align 4, !tbaa !26
  %22 = icmp eq i32 %21, 2
  br i1 %22, label %dictCheckRehashingCompleted.exit, label %23

23:                                               ; preds = %6
  %24 = getelementptr inbounds nuw i8, ptr %0, i64 40
  %25 = load i64, ptr %24, align 8, !tbaa !14
  %.not24 = icmp eq i64 %25, -1
  br i1 %.not24, label %dictCheckRehashingCompleted.exit, label %26

26:                                               ; preds = %23
  %27 = icmp eq i32 %21, 1
  br i1 %27, label %28, label %36

28:                                               ; preds = %26
  %29 = icmp ugt i64 %20, %13
  %30 = shl i64 %13, 2
  %31 = icmp ult i64 %20, %30
  %or.cond = and i1 %29, %31
  br i1 %or.cond, label %dictCheckRehashingCompleted.exit, label %32

32:                                               ; preds = %28
  %33 = icmp ult i64 %20, %13
  %34 = shl i64 %20, 5
  %35 = icmp ult i64 %13, %34
  %or.cond27 = and i1 %33, %35
  br i1 %or.cond27, label %dictCheckRehashingCompleted.exit, label %36

36:                                               ; preds = %32, %26
  tail call fastcc void @rehashEntriesInBucketAtIndex(ptr noundef nonnull %0, i64 noundef %1)
  %37 = getelementptr inbounds nuw i8, ptr %0, i64 24
  %38 = load i64, ptr %37, align 8, !tbaa !14
  %.not.i = icmp eq i64 %38, 0
  br i1 %.not.i, label %39, label %dictCheckRehashingCompleted.exit

39:                                               ; preds = %36
  %40 = load ptr, ptr %0, align 8, !tbaa !16
  %41 = getelementptr inbounds nuw i8, ptr %40, i64 64
  %42 = load ptr, ptr %41, align 8, !tbaa !28
  %.not14.i = icmp eq ptr %42, null
  br i1 %.not14.i, label %44, label %43

43:                                               ; preds = %39
  tail call void %42(ptr noundef nonnull %0) #25
  br label %44

44:                                               ; preds = %43, %39
  %45 = getelementptr inbounds nuw i8, ptr %0, i64 8
  %46 = load ptr, ptr %45, align 8, !tbaa !11
  tail call void @zfree(ptr noundef %46) #25
  %47 = getelementptr inbounds nuw i8, ptr %0, i64 16
  %48 = load ptr, ptr %47, align 8, !tbaa !11
  store ptr %48, ptr %45, align 8, !tbaa !11
  %49 = getelementptr inbounds nuw i8, ptr %0, i64 32
  %50 = load i64, ptr %49, align 8, !tbaa !14
  store i64 %50, ptr %37, align 8, !tbaa !14
  %51 = load i8, ptr %14, align 1, !tbaa !13
  store i8 %51, ptr %7, align 2, !tbaa !13
  store ptr null, ptr %47, align 8, !tbaa !11
  store i8 -1, ptr %14, align 1, !tbaa !13
  store i64 0, ptr %49, align 8, !tbaa !14
  store i64 -1, ptr %24, align 8, !tbaa !14
  br label %dictCheckRehashingCompleted.exit

dictCheckRehashingCompleted.exit:                 ; preds = %44, %36, %23, %6, %32, %28, %2
  %.0 = phi i32 [ 0, %2 ], [ 0, %23 ], [ 0, %6 ], [ 0, %32 ], [ 0, %28 ], [ 1, %36 ], [ 1, %44 ]
  ret i32 %.0
}